target datalayout = "e-m:e-p270:32:32-p271:32:32-p272:64:64-i64:64-i128:128-f80:128-n8:16:32:64-S128"
target triple = "x86_64-pc-linux-gnu"

@.str.37 = private unnamed_addr constant [1 x i8] zeroinitializer, align 1

; Function Attrs: nounwind uwtable
define internal i64 @getendpos(ptr noundef %0, i32 noundef %1, i64 noundef %2, i64 noundef %3) #0 {
  %5 = alloca i64, align 8
  %6 = alloca ptr, align 8
  %7 = alloca i32, align 4
  %8 = alloca i64, align 8
  %9 = alloca i64, align 8
  %10 = alloca i64, align 8
  %11 = alloca i32, align 4
  store ptr %0, ptr %6, align 8, !tbaa !4
  store i32 %1, ptr %7, align 4, !tbaa !15
  store i64 %2, ptr %8, align 8, !tbaa !11
  store i64 %3, ptr %9, align 8, !tbaa !13
  call void @llvm.lifetime.start.p0(i64 8, ptr %10) #11
  %12 = load ptr, ptr %6, align 8, !tbaa !4
  %13 = load i32, ptr %7, align 4, !tbaa !15
  %14 = load i64, ptr %8, align 8, !tbaa !11
  %15 = call i64 @luaL_optinteger(ptr noundef %12, i32 noundef %13, i64 noundef %14)
  store i64 %15, ptr %10, align 8, !tbaa !11
  %16 = load i64, ptr %10, align 8, !tbaa !11
  %17 = load i64, ptr %9, align 8, !tbaa !13
  %18 = icmp sgt i64 %16, %17
  br i1 %18, label %19, label %21

19:                                               ; preds = %4
  %20 = load i64, ptr %9, align 8, !tbaa !13
  store i64 %20, ptr %5, align 8
  store i32 1, ptr %11, align 4
  br label %37

21:                                               ; preds = %4
  %22 = load i64, ptr %10, align 8, !tbaa !11
  %23 = icmp sge i64 %22, 0
  br i1 %23, label %24, label %26

24:                                               ; preds = %21
  %25 = load i64, ptr %10, align 8, !tbaa !11
  store i64 %25, ptr %5, align 8
  store i32 1, ptr %11, align 4
  br label %37

26:                                               ; preds = %21
  %27 = load i64, ptr %10, align 8, !tbaa !11
  %28 = load i64, ptr %9, align 8, !tbaa !13
  %29 = sub nsw i64 0, %28
  %30 = icmp slt i64 %27, %29
  br i1 %30, label %31, label %32

31:                                               ; preds = %26
  store i64 0, ptr %5, align 8
  store i32 1, ptr %11, align 4
  br label %37

32:                                               ; preds = %26
  %33 = load i64, ptr %9, align 8, !tbaa !13
  %34 = load i64, ptr %10, align 8, !tbaa !11
  %35 = add i64 %33, %34
  %36 = add i64 %35, 1
  store i64 %36, ptr %5, align 8
  store i32 1, ptr %11, align 4
  br label %37

37:                                               ; preds = %32, %31, %24, %19
  call void @llvm.lifetime.end.p0(i64 8, ptr %10) #11
  %38 = load i64, ptr %5, align 8
  ret i64 %38
}

; Function Attrs: nounwind uwtable
define internal i64 @posrelatI(i64 noundef %0, i64 noundef %1) #0 {
  %3 = alloca i64, align 8
  %4 = alloca i64, align 8
  %5 = alloca i64, align 8
  store i64 %0, ptr %4, align 8, !tbaa !11
  store i64 %1, ptr %5, align 8, !tbaa !13
  %6 = load i64, ptr %4, align 8, !tbaa !11
  %7 = icmp sgt i64 %6, 0
  br i1 %7, label %8, label %10

8:                                                ; preds = %2
  %9 = load i64, ptr %4, align 8, !tbaa !11
  store i64 %9, ptr %3, align 8
  br label %25

10:                                               ; preds = %2
  %11 = load i64, ptr %4, align 8, !tbaa !11
  %12 = icmp eq i64 %11, 0
  br i1 %12, label %13, label %14

13:                                               ; preds = %10
  store i64 1, ptr %3, align 8
  br label %25

14:                                               ; preds = %10
  %15 = load i64, ptr %4, align 8, !tbaa !11
  %16 = load i64, ptr %5, align 8, !tbaa !13
  %17 = sub nsw i64 0, %16
  %18 = icmp slt i64 %15, %17
  br i1 %18, label %19, label %20

19:                                               ; preds = %14
  store i64 1, ptr %3, align 8
  br label %25

20:                                               ; preds = %14
  %21 = load i64, ptr %5, align 8, !tbaa !13
  %22 = load i64, ptr %4, align 8, !tbaa !11
  %23 = add i64 %21, %22
  %24 = add i64 %23, 1
  store i64 %24, ptr %3, align 8
  br label %25

25:                                               ; preds = %20, %19, %13, %8
  %26 = load i64, ptr %3, align 8
  ret i64 %26
}

; Function Attrs: nounwind uwtable
define internal i32 @str_sub(ptr noundef %0) #0 {
  %2 = alloca ptr, align 8
  %3 = alloca i64, align 8
  %4 = alloca ptr, align 8
  %5 = alloca i64, align 8
  %6 = alloca i64, align 8
  store ptr %0, ptr %2, align 8, !tbaa !4
  call void @llvm.lifetime.start.p0(i64 8, ptr %3) #11
  call void @llvm.lifetime.start.p0(i64 8, ptr %4) #11
  %7 = load ptr, ptr %2, align 8, !tbaa !4
  %8 = call ptr @luaL_checklstring(ptr noundef %7, i32 noundef 1, ptr noundef %3)
  store ptr %8, ptr %4, align 8, !tbaa !9
  call void @llvm.lifetime.start.p0(i64 8, ptr %5) #11
  %9 = load ptr, ptr %2, align 8, !tbaa !4
  %10 = call i64 @luaL_checkinteger(ptr noundef %9, i32 noundef 2)
  %11 = load i64, ptr %3, align 8, !tbaa !13
  %12 = call i64 @posrelatI(i64 noundef %10, i64 noundef %11)
  store i64 %12, ptr %5, align 8, !tbaa !13
  call void @llvm.lifetime.start.p0(i64 8, ptr %6) #11
  %13 = load ptr, ptr %2, align 8, !tbaa !4
  %14 = load i64, ptr %3, align 8, !tbaa !13
  %15 = call i64 @getendpos(ptr noundef %13, i32 noundef 3, i64 noundef -1, i64 noundef %14)
  store i64 %15, ptr %6, align 8, !tbaa !13
  %16 = load i64, ptr %5, align 8, !tbaa !13
  %17 = load i64, ptr %6, align 8, !tbaa !13
  %18 = icmp ule i64 %16, %17
  br i1 %18, label %19, label %30

19:                                               ; preds = %1
  %20 = load ptr, ptr %2, align 8, !tbaa !4
  %21 = load ptr, ptr %4, align 8, !tbaa !9
  %22 = load i64, ptr %5, align 8, !tbaa !13
  %23 = getelementptr inbounds nuw i8, ptr %21, i64 %22
  %24 = getelementptr inbounds i8, ptr %23, i64 -1
  %25 = load i64, ptr %6, align 8, !tbaa !13
  %26 = load i64, ptr %5, align 8, !tbaa !13
  %27 = sub i64 %25, %26
  %28 = add i64 %27, 1
  %29 = call ptr @lua_pushlstring(ptr noundef %20, ptr noundef %24, i64 noundef %28)
  br label %33

30:                                               ; preds = %1
  %31 = load ptr, ptr %2, align 8, !tbaa !4
  %32 = call ptr @lua_pushstring(ptr noundef %31, ptr noundef @.str.37)
  br label %33

33:                                               ; preds = %30, %19
  call void @llvm.lifetime.end.p0(i64 8, ptr %6) #11
  call void @llvm.lifetime.end.p0(i64 8, ptr %5) #11
  call void @llvm.lifetime.end.p0(i64 8, ptr %4) #11
  call void @llvm.lifetime.end.p0(i64 8, ptr %3) #11
  ret i32 1
}