; Function Attrs: nounwind uwtable
define internal noundef i32 @str_sub(ptr noundef %0) #0 {
  %2 = alloca i64, align 8
  call void @llvm.lifetime.start.p0(i64 8, ptr nonnull %2) #12
  %3 = call ptr @luaL_checklstring(ptr noundef %0, i32 noundef 1, ptr noundef nonnull %2) #12
  %4 = call i64 @luaL_checkinteger(ptr noundef %0, i32 noundef 2) #12
  %5 = load i64, ptr %2, align 8, !tbaa !4
  %6 = icmp sgt i64 %4, 0
  br i1 %6, label %posrelatI.exit, label %7

7:                                                ; preds = %1
  %8 = icmp eq i64 %4, 0
  %9 = sub nsw i64 0, %5
  %10 = icmp slt i64 %4, %9
  %or.cond.i = select i1 %8, i1 true, i1 %10
  br i1 %or.cond.i, label %posrelatI.exit, label %11

11:                                               ; preds = %7
  %12 = add i64 %5, 1
  %13 = add i64 %12, %4
  br label %posrelatI.exit

posrelatI.exit:                                   ; preds = %1, %7, %11
  %.0.i = phi i64 [ %13, %11 ], [ %4, %1 ], [ 1, %7 ]
  %14 = call i64 @luaL_optinteger(ptr noundef %0, i32 noundef 3, i64 noundef -1) #12
  %15 = icmp sgt i64 %14, %5
  br i1 %15, label %getendpos.exit, label %16

16:                                               ; preds = %posrelatI.exit
  %17 = icmp sgt i64 %14, -1
  br i1 %17, label %getendpos.exit, label %18

18:                                               ; preds = %16
  %19 = sub nsw i64 0, %5
  %20 = icmp slt i64 %14, %19
  br i1 %20, label %getendpos.exit, label %21

21:                                               ; preds = %18
  %22 = add i64 %5, 1
  %23 = add i64 %22, %14
  br label %getendpos.exit

getendpos.exit:                                   ; preds = %posrelatI.exit, %16, %18, %21
  %.0.i11 = phi i64 [ %23, %21 ], [ %5, %posrelatI.exit ], [ %14, %16 ], [ 0, %18 ]
  %.not = icmp ugt i64 %.0.i, %.0.i11
  br i1 %.not, label %29, label %24

24:                                               ; preds = %getendpos.exit
  %25 = getelementptr inbounds nuw i8, ptr %3, i64 %.0.i
  %26 = getelementptr inbounds i8, ptr %25, i64 -1
  %reass.sub = sub nuw i64 %.0.i11, %.0.i
  %27 = add i64 %reass.sub, 1
  %28 = call ptr @lua_pushlstring(ptr noundef %0, ptr noundef nonnull %26, i64 noundef %27) #12
  br label %31

29:                                               ; preds = %getendpos.exit
  %30 = call ptr @lua_pushstring(ptr noundef %0, ptr noundef nonnull @.str.37) #12
  br label %31

31:                                               ; preds = %29, %24
  call void @llvm.lifetime.end.p0(i64 8, ptr nonnull %2) #12
  ret i32 1
}